; ModuleID = '29/1119.c'
source_filename = "29/1119.c"
target datalayout = "e-m:e-p270:32:32-p271:32:32-p272:64:64-i64:64-f80:128-n8:16:32:64-S128"
target triple = "x86_64-pc-linux-gnu"

@.str = private unnamed_addr constant [3 x i8] c"%d\00", align 1
@.str.1 = private unnamed_addr constant [7 x i8] c"%.3lf\0A\00", align 1
@.str.2 = private unnamed_addr constant [6 x i8] c"%.3lf\00", align 1

; Function Attrs: noinline nounwind uwtable
define dso_local i32 @main() #0 {
  %1 = alloca i32, align 4
  %2 = alloca i32, align 4
  %3 = alloca i32, align 4
  %4 = alloca i32, align 4
  %5 = alloca [100 x i32], align 16
  %6 = alloca i32, align 4
  %7 = alloca i32, align 4
  %8 = alloca i32, align 4
  %9 = alloca [100 x double], align 16
  store i32 0, i32* %1, align 4
  store i32 2, i32* %7, align 4
  store i32 1, i32* %8, align 4
  %10 = call i32 (i8*, ...) @__isoc99_scanf(i8* getelementptr inbounds ([3 x i8], [3 x i8]* @.str, i64 0, i64 0), i32* %2)
  store i32 0, i32* %3, align 4
  br label %11

11:                                               ; preds = %20, %0
  %12 = load i32, i32* %3, align 4
  %13 = load i32, i32* %2, align 4
  %14 = icmp slt i32 %12, %13
  br i1 %14, label %15, label %23

15:                                               ; preds = %11
  %16 = load i32, i32* %3, align 4
  %17 = sext i32 %16 to i64
  %18 = getelementptr inbounds [100 x i32], [100 x i32]* %5, i64 0, i64 %17
  %19 = call i32 (i8*, ...) @__isoc99_scanf(i8* getelementptr inbounds ([3 x i8], [3 x i8]* @.str, i64 0, i64 0), i32* %18)
  br label %20

20:                                               ; preds = %15
  %21 = load i32, i32* %3, align 4
  %22 = add nsw i32 %21, 1
  store i32 %22, i32* %3, align 4
  br label %11

23:                                               ; preds = %11
  store i32 0, i32* %3, align 4
  br label %24

24:                                               ; preds = %32, %23
  %25 = load i32, i32* %3, align 4
  %26 = load i32, i32* %2, align 4
  %27 = icmp slt i32 %25, %26
  br i1 %27, label %28, label %35

28:                                               ; preds = %24
  %29 = load i32, i32* %3, align 4
  %30 = sext i32 %29 to i64
  %31 = getelementptr inbounds [100 x double], [100 x double]* %9, i64 0, i64 %30
  store double 0.000000e+00, double* %31, align 8
  br label %32

32:                                               ; preds = %28
  %33 = load i32, i32* %3, align 4
  %34 = add nsw i32 %33, 1
  store i32 %34, i32* %3, align 4
  br label %24

35:                                               ; preds = %24
  store i32 0, i32* %3, align 4
  br label %36

36:                                               ; preds = %72, %35
  %37 = load i32, i32* %3, align 4
  %38 = load i32, i32* %2, align 4
  %39 = icmp slt i32 %37, %38
  br i1 %39, label %40, label %75

40:                                               ; preds = %36
  store i32 2, i32* %7, align 4
  store i32 1, i32* %8, align 4
  store i32 0, i32* %4, align 4
  br label %41

41:                                               ; preds = %68, %40
  %42 = load i32, i32* %4, align 4
  %43 = load i32, i32* %3, align 4
  %44 = sext i32 %43 to i64
  %45 = getelementptr inbounds [100 x i32], [100 x i32]* %5, i64 0, i64 %44
  %46 = load i32, i32* %45, align 4
  %47 = icmp slt i32 %42, %46
  br i1 %47, label %48, label %71

48:                                               ; preds = %41
  %49 = load i32, i32* %3, align 4
  %50 = sext i32 %49 to i64
  %51 = getelementptr inbounds [100 x double], [100 x double]* %9, i64 0, i64 %50
  %52 = load double, double* %51, align 8
  %53 = load i32, i32* %7, align 4
  %54 = sitofp i32 %53 to double
  %55 = fmul double 1.000000e+00, %54
  %56 = load i32, i32* %8, align 4
  %57 = sitofp i32 %56 to double
  %58 = fdiv double %55, %57
  %59 = fadd double %52, %58
  %60 = load i32, i32* %3, align 4
  %61 = sext i32 %60 to i64
  %62 = getelementptr inbounds [100 x double], [100 x double]* %9, i64 0, i64 %61
  store double %59, double* %62, align 8
  %63 = load i32, i32* %8, align 4
  store i32 %63, i32* %6, align 4
  %64 = load i32, i32* %7, align 4
  store i32 %64, i32* %8, align 4
  %65 = load i32, i32* %7, align 4
  %66 = load i32, i32* %6, align 4
  %67 = add nsw i32 %65, %66
  store i32 %67, i32* %7, align 4
  br label %68

68:                                               ; preds = %48
  %69 = load i32, i32* %4, align 4
  %70 = add nsw i32 %69, 1
  store i32 %70, i32* %4, align 4
  br label %41

71:                                               ; preds = %41
  br label %72

72:                                               ; preds = %71
  %73 = load i32, i32* %3, align 4
  %74 = add nsw i32 %73, 1
  store i32 %74, i32* %3, align 4
  br label %36

75:                                               ; preds = %36
  store i32 0, i32* %3, align 4
  br label %76

76:                                               ; preds = %87, %75
  %77 = load i32, i32* %3, align 4
  %78 = load i32, i32* %2, align 4
  %79 = sub nsw i32 %78, 1
  %80 = icmp slt i32 %77, %79
  br i1 %80, label %81, label %90

81:                                               ; preds = %76
  %82 = load i32, i32* %3, align 4
  %83 = sext i32 %82 to i64
  %84 = getelementptr inbounds [100 x double], [100 x double]* %9, i64 0, i64 %83
  %85 = load double, double* %84, align 8
  %86 = call i32 (i8*, ...) @printf(i8* getelementptr inbounds ([7 x i8], [7 x i8]* @.str.1, i64 0, i64 0), double %85)
  br label %87

87:                                               ; preds = %81
  %88 = load i32, i32* %3, align 4
  %89 = add nsw i32 %88, 1
  store i32 %89, i32* %3, align 4
  br label %76

90:                                               ; preds = %76
  %91 = load i32, i32* %2, align 4
  %92 = sub nsw i32 %91, 1
  %93 = sext i32 %92 to i64
  %94 = getelementptr inbounds [100 x double], [100 x double]* %9, i64 0, i64 %93
  %95 = load double, double* %94, align 8
  %96 = call i32 (i8*, ...) @printf(i8* getelementptr inbounds ([6 x i8], [6 x i8]* @.str.2, i64 0, i64 0), double %95)
  ret i32 0
}

declare dso_local i32 @__isoc99_scanf(i8*, ...) #1

declare dso_local i32 @printf(i8*, ...) #1


!llvm.module.flags = !{!0}
!llvm.ident = !{!1}

!0 = !{i32 1, !"wchar_size", i32 4}
!1 = !{!"clang version 10.0.0-4ubuntu1 "}
