; ModuleID = 'source-C-CXX/28/1119.c'
source_filename = "source-C-CXX/28/1119.c"
target datalayout = "e-m:e-p270:32:32-p271:32:32-p272:64:64-i64:64-f80:128-n8:16:32:64-S128"
target triple = "x86_64-pc-linux-gnu"

@.str = private unnamed_addr constant [3 x i8] c"%d\00", align 1
@.str.1 = private unnamed_addr constant [7 x i8] c"%.3lf\0A\00", align 1
@.str.2 = private unnamed_addr constant [6 x i8] c"%.3lf\00", align 1

; Function Attrs: nofree nounwind sspstrong uwtable
define dso_local i32 @main() local_unnamed_addr #0 {
  %1 = alloca i32, align 4
  %2 = alloca [100 x i32], align 16
  %3 = alloca [100 x double], align 16
  %4 = bitcast [100 x double]* %3 to i8*
  %5 = bitcast i32* %1 to i8*
  call void @llvm.lifetime.start.p0i8(i64 4, i8* nonnull %5) #4
  %6 = bitcast [100 x i32]* %2 to i8*
  call void @llvm.lifetime.start.p0i8(i64 400, i8* nonnull %6) #4
  call void @llvm.lifetime.start.p0i8(i64 800, i8* nonnull %4) #4
  %7 = call i32 (i8*, ...) @__isoc99_scanf(i8* getelementptr inbounds ([3 x i8], [3 x i8]* @.str, i64 0, i64 0), i32* nonnull %1)
  %8 = load i32, i32* %1, align 4, !tbaa !5
  %9 = icmp sgt i32 %8, 0
  br i1 %9, label %12, label %38

10:                                               ; preds = %12
  %11 = icmp sgt i32 %17, 0
  br i1 %11, label %20, label %38

12:                                               ; preds = %0, %12
  %13 = phi i64 [ %16, %12 ], [ 0, %0 ]
  %14 = getelementptr inbounds [100 x i32], [100 x i32]* %2, i64 0, i64 %13
  %15 = call i32 (i8*, ...) @__isoc99_scanf(i8* getelementptr inbounds ([3 x i8], [3 x i8]* @.str, i64 0, i64 0), i32* nonnull %14)
  %16 = add nuw nsw i64 %13, 1
  %17 = load i32, i32* %1, align 4, !tbaa !5
  %18 = sext i32 %17 to i64
  %19 = icmp slt i64 %16, %18
  br i1 %19, label %12, label %10, !llvm.loop !9

20:                                               ; preds = %10
  %21 = zext i32 %17 to i64
  %22 = shl nuw nsw i64 %21, 3
  call void @llvm.memset.p0i8.i64(i8* nonnull align 16 %4, i8 0, i64 %22, i1 false)
  %23 = zext i32 %17 to i64
  br label %24

24:                                               ; preds = %20, %72
  %25 = phi i64 [ 0, %20 ], [ %73, %72 ]
  %26 = getelementptr inbounds [100 x i32], [100 x i32]* %2, i64 0, i64 %25
  %27 = load i32, i32* %26, align 4, !tbaa !5
  %28 = getelementptr inbounds [100 x double], [100 x double]* %3, i64 0, i64 %25
  %29 = icmp sgt i32 %27, 0
  br i1 %29, label %30, label %72

30:                                               ; preds = %24
  %31 = load double, double* %28, align 8, !tbaa !11
  %32 = and i32 %27, 1
  %33 = icmp eq i32 %27, 1
  br i1 %33, label %59, label %34

34:                                               ; preds = %30
  %35 = and i32 %27, -2
  br label %42

36:                                               ; preds = %72
  %37 = icmp sgt i32 %17, 1
  br i1 %37, label %75, label %38

38:                                               ; preds = %10, %0, %36
  %39 = phi i32 [ %17, %36 ], [ %8, %0 ], [ %17, %10 ]
  %40 = add nsw i32 %39, -1
  %41 = sext i32 %40 to i64
  br label %85

42:                                               ; preds = %42, %34
  %43 = phi double [ %31, %34 ], [ %55, %42 ]
  %44 = phi i32 [ 1, %34 ], [ %51, %42 ]
  %45 = phi i32 [ 2, %34 ], [ %56, %42 ]
  %46 = phi i32 [ %35, %34 ], [ %57, %42 ]
  %47 = sitofp i32 %45 to double
  %48 = sitofp i32 %44 to double
  %49 = fdiv double %47, %48
  %50 = fadd double %49, %43
  %51 = add nsw i32 %44, %45
  %52 = sitofp i32 %51 to double
  %53 = sitofp i32 %45 to double
  %54 = fdiv double %52, %53
  %55 = fadd double %54, %50
  %56 = add nsw i32 %45, %51
  %57 = add i32 %46, -2
  %58 = icmp eq i32 %57, 0
  br i1 %58, label %59, label %42, !llvm.loop !13

59:                                               ; preds = %42, %30
  %60 = phi double [ undef, %30 ], [ %55, %42 ]
  %61 = phi double [ %31, %30 ], [ %55, %42 ]
  %62 = phi i32 [ 1, %30 ], [ %51, %42 ]
  %63 = phi i32 [ 2, %30 ], [ %56, %42 ]
  %64 = icmp eq i32 %32, 0
  br i1 %64, label %70, label %65

65:                                               ; preds = %59
  %66 = sitofp i32 %63 to double
  %67 = sitofp i32 %62 to double
  %68 = fdiv double %66, %67
  %69 = fadd double %68, %61
  br label %70

70:                                               ; preds = %59, %65
  %71 = phi double [ %60, %59 ], [ %69, %65 ]
  store double %71, double* %28, align 8, !tbaa !11
  br label %72

72:                                               ; preds = %70, %24
  %73 = add nuw nsw i64 %25, 1
  %74 = icmp eq i64 %73, %23
  br i1 %74, label %36, label %24, !llvm.loop !14

75:                                               ; preds = %36, %75
  %76 = phi i64 [ %80, %75 ], [ 0, %36 ]
  %77 = getelementptr inbounds [100 x double], [100 x double]* %3, i64 0, i64 %76
  %78 = load double, double* %77, align 8, !tbaa !11
  %79 = call i32 (i8*, ...) @printf(i8* nonnull dereferenceable(1) getelementptr inbounds ([7 x i8], [7 x i8]* @.str.1, i64 0, i64 0), double %78)
  %80 = add nuw nsw i64 %76, 1
  %81 = load i32, i32* %1, align 4, !tbaa !5
  %82 = add nsw i32 %81, -1
  %83 = sext i32 %82 to i64
  %84 = icmp slt i64 %80, %83
  br i1 %84, label %75, label %85, !llvm.loop !15

85:                                               ; preds = %75, %38
  %86 = phi i64 [ %41, %38 ], [ %83, %75 ]
  %87 = getelementptr inbounds [100 x double], [100 x double]* %3, i64 0, i64 %86
  %88 = load double, double* %87, align 8, !tbaa !11
  %89 = call i32 (i8*, ...) @printf(i8* nonnull dereferenceable(1) getelementptr inbounds ([6 x i8], [6 x i8]* @.str.2, i64 0, i64 0), double %88)
  call void @llvm.lifetime.end.p0i8(i64 800, i8* nonnull %4) #4
  call void @llvm.lifetime.end.p0i8(i64 400, i8* nonnull %6) #4
  call void @llvm.lifetime.end.p0i8(i64 4, i8* nonnull %5) #4
  ret i32 0
}

; Function Attrs: argmemonly mustprogress nofree nosync nounwind willreturn
declare void @llvm.lifetime.start.p0i8(i64 immarg, i8* nocapture) #1

; Function Attrs: nofree nounwind
declare noundef i32 @__isoc99_scanf(i8* nocapture noundef readonly, ...) local_unnamed_addr #2

; Function Attrs: nofree nounwind
declare noundef i32 @printf(i8* nocapture noundef readonly, ...) local_unnamed_addr #2

; Function Attrs: argmemonly mustprogress nofree nosync nounwind willreturn
declare void @llvm.lifetime.end.p0i8(i64 immarg, i8* nocapture) #1

; Function Attrs: argmemonly nofree nounwind willreturn writeonly
declare void @llvm.memset.p0i8.i64(i8* nocapture writeonly, i8, i64, i1 immarg) #3


!llvm.module.flags = !{!0, !1, !2, !3}
!llvm.ident = !{!4}

!0 = !{i32 1, !"wchar_size", i32 4}
!1 = !{i32 7, !"PIC Level", i32 2}
!2 = !{i32 7, !"PIE Level", i32 2}
!3 = !{i32 7, !"uwtable", i32 1}
!4 = !{!"clang version 13.0.0"}
!5 = !{!6, !6, i64 0}
!6 = !{!"int", !7, i64 0}
!7 = !{!"omnipotent char", !8, i64 0}
!8 = !{!"Simple C/C++ TBAA"}
!9 = distinct !{!9, !10}
!10 = !{!"llvm.loop.mustprogress"}
!11 = !{!12, !12, i64 0}
!12 = !{!"double", !7, i64 0}
!13 = distinct !{!13, !10}
!14 = distinct !{!14, !10}
!15 = distinct !{!15, !10}
